; Function Attrs: nounwind sspstrong uwtable
define internal void @virtio_pci_pre_plugged(ptr noundef %0, ptr readnone captures(none) %1) #0 {
virtio_bus_get_device.exit:
  %2 = tail call ptr @object_dynamic_cast_assert(ptr noundef %0, ptr noundef nonnull @.str, ptr noundef nonnull @.str.15, i32 noundef 107, ptr noundef nonnull @__func__.VIRTIO_PCI) #15
  %3 = getelementptr i8, ptr %2, i64 34160
  %.val = load ptr, ptr %3, align 8, !nonnull !6, !noundef !6
  %4 = getelementptr inbounds nuw i8, ptr %.val, i64 16
  %5 = load ptr, ptr %4, align 8
  %6 = getelementptr i8, ptr %2, i64 5352
  %.val5 = load i8, ptr %6, align 8, !range !7, !noundef !6
  %7 = trunc nuw i8 %.val5 to i1
  %.phi.trans.insert = getelementptr inbounds nuw i8, ptr %5, i64 168
  %.pre = load i64, ptr %.phi.trans.insert, align 8
  %8 = or i64 %.pre, 4294967296
  %9 = select i1 %7, i64 %.pre, i64 %8
  %10 = getelementptr inbounds nuw i8, ptr %5, i64 168
  %11 = or i64 %9, 1073741824
  store i64 %11, ptr %10, align 8
  ret void
}